; Function Attrs: nofree norecurse nosync nounwind memory(read, argmem: readwrite, inaccessiblemem: none) uwtable
define internal void @yuv2ya16le_X_c(ptr readnone captures(none) %0, ptr noundef readonly captures(none) %1, ptr noundef readonly captures(none) %2, i32 noundef %3, ptr readnone captures(none) %4, ptr readnone captures(none) %5, ptr readnone captures(none) %6, i32 %7, ptr noundef readonly captures(address_is_null) %8, ptr noundef writeonly captures(none) %9, i32 noundef %10, i32 %11) #3 {
  %13 = icmp sgt i32 %10, 0
  br i1 %13, label %.preheader16.lr.ph, label %yuv2ya16_X_c_template.exit

.preheader16.lr.ph:                               ; preds = %12
  %.not.i = icmp eq ptr %8, null
  %14 = icmp sgt i32 %3, 0
  %wide.trip.count82 = zext nneg i32 %10 to i64
  br i1 %.not.i, label %.preheader16.lr.ph.split.us, label %.preheader16.lr.ph.split

.preheader16.lr.ph.split.us:                      ; preds = %.preheader16.lr.ph
  br i1 %14, label %.preheader16.us.us.preheader, label %.preheader16.us

.preheader16.us.us.preheader:                     ; preds = %.preheader16.lr.ph.split.us
  %wide.trip.count77 = zext nneg i32 %3 to i64
  br label %.preheader16.us.us

.preheader16.us.us:                               ; preds = %.preheader16.us.us.preheader, %._crit_edge.us.us
  %indvars.iv79 = phi i64 [ 0, %.preheader16.us.us.preheader ], [ %indvars.iv.next80, %._crit_edge.us.us ]
  br label %15

15:                                               ; preds = %.preheader16.us.us, %15
  %indvars.iv74 = phi i64 [ 0, %.preheader16.us.us ], [ %indvars.iv.next75, %15 ]
  %.042.i18.us.us = phi i32 [ -1073741824, %.preheader16.us.us ], [ %24, %15 ]
  %16 = getelementptr inbounds nuw ptr, ptr %2, i64 %indvars.iv74
  %17 = load ptr, ptr %16, align 8, !tbaa !48
  %18 = getelementptr inbounds nuw i32, ptr %17, i64 %indvars.iv79
  %19 = load i32, ptr %18, align 4, !tbaa !49
  %20 = getelementptr inbounds nuw i16, ptr %1, i64 %indvars.iv74
  %21 = load i16, ptr %20, align 2, !tbaa !39
  %22 = sext i16 %21 to i32
  %23 = mul nsw i32 %19, %22
  %24 = add nsw i32 %23, %.042.i18.us.us
  %indvars.iv.next75 = add nuw nsw i64 %indvars.iv74, 1
  %exitcond78.not = icmp eq i64 %indvars.iv.next75, %wide.trip.count77
  br i1 %exitcond78.not, label %._crit_edge.us.us, label %15, !llvm.loop !151

._crit_edge.us.us:                                ; preds = %15
  %25 = ashr i32 %24, 15
  %26 = add nsw i32 %25, 32776
  %.not.i49.i.us.us = icmp ult i32 %26, 65536
  %isnotneg.i50.i.us.us = icmp sgt i32 %25, -32777
  %27 = sext i1 %isnotneg.i50.i.us.us to i16
  %28 = trunc nuw i32 %26 to i16
  %.0.i51.i.us.us = select i1 %.not.i49.i.us.us, i16 %28, i16 %27
  %.idx86 = shl nuw nsw i64 %indvars.iv79, 2
  %29 = getelementptr inbounds nuw i8, ptr %9, i64 %.idx86
  store i16 %.0.i51.i.us.us, ptr %29, align 1, !tbaa !41
  %30 = getelementptr inbounds nuw i8, ptr %29, i64 2
  store i16 -1, ptr %30, align 1, !tbaa !41
  %indvars.iv.next80 = add nuw nsw i64 %indvars.iv79, 1
  %exitcond83.not = icmp eq i64 %indvars.iv.next80, %wide.trip.count82
  br i1 %exitcond83.not, label %yuv2ya16_X_c_template.exit, label %.preheader16.us.us, !llvm.loop !152

.preheader16.us:                                  ; preds = %.preheader16.lr.ph.split.us, %.preheader16.us
  %indvars.iv69 = phi i64 [ %indvars.iv.next70, %.preheader16.us ], [ 0, %.preheader16.lr.ph.split.us ]
  %.idx85 = shl nuw nsw i64 %indvars.iv69, 2
  %31 = getelementptr inbounds nuw i8, ptr %9, i64 %.idx85
  store i16 8, ptr %31, align 1, !tbaa !41
  %32 = getelementptr inbounds nuw i8, ptr %31, i64 2
  store i16 -1, ptr %32, align 1, !tbaa !41
  %indvars.iv.next70 = add nuw nsw i64 %indvars.iv69, 1
  %exitcond73.not = icmp eq i64 %indvars.iv.next70, %wide.trip.count82
  br i1 %exitcond73.not, label %yuv2ya16_X_c_template.exit, label %.preheader16.us, !llvm.loop !152

.preheader16.lr.ph.split:                         ; preds = %.preheader16.lr.ph
  br i1 %14, label %.preheader16.us26.preheader, label %.preheader16

.preheader16.us26.preheader:                      ; preds = %.preheader16.lr.ph.split
  %wide.trip.count57 = zext nneg i32 %3 to i64
  br label %.preheader16.us26

.preheader16.us26:                                ; preds = %.preheader16.us26.preheader, %._crit_edge22.us
  %indvars.iv64 = phi i64 [ 0, %.preheader16.us26.preheader ], [ %indvars.iv.next65, %._crit_edge22.us ]
  br label %49

._crit_edge22.us:                                 ; preds = %39
  %33 = ashr i32 %48, 15
  %34 = add nsw i32 %33, 32768
  %.not.i.i.us = icmp ult i32 %34, 65536
  %isnotneg.i.i.us = icmp sgt i32 %33, -32769
  %35 = sext i1 %isnotneg.i.i.us to i16
  %36 = trunc nuw i32 %34 to i16
  %.0.i.i.us = select i1 %.not.i.i.us, i16 %36, i16 %35
  %.idx84 = shl nuw nsw i64 %indvars.iv64, 2
  %37 = getelementptr inbounds nuw i8, ptr %9, i64 %.idx84
  store i16 %.0.i51.i.us31, ptr %37, align 1, !tbaa !41
  %38 = getelementptr inbounds nuw i8, ptr %37, i64 2
  store i16 %.0.i.i.us, ptr %38, align 1, !tbaa !41
  %indvars.iv.next65 = add nuw nsw i64 %indvars.iv64, 1
  %exitcond68.not = icmp eq i64 %indvars.iv.next65, %wide.trip.count82
  br i1 %exitcond68.not, label %yuv2ya16_X_c_template.exit, label %.preheader16.us26, !llvm.loop !152

39:                                               ; preds = %.lr.ph21.us, %39
  %indvars.iv59 = phi i64 [ 0, %.lr.ph21.us ], [ %indvars.iv.next60, %39 ]
  %.1.i20.us = phi i32 [ -1073725440, %.lr.ph21.us ], [ %48, %39 ]
  %40 = getelementptr inbounds nuw ptr, ptr %8, i64 %indvars.iv59
  %41 = load ptr, ptr %40, align 8, !tbaa !48
  %42 = getelementptr inbounds nuw i32, ptr %41, i64 %indvars.iv64
  %43 = load i32, ptr %42, align 4, !tbaa !49
  %44 = getelementptr inbounds nuw i16, ptr %1, i64 %indvars.iv59
  %45 = load i16, ptr %44, align 2, !tbaa !39
  %46 = sext i16 %45 to i32
  %47 = mul nsw i32 %43, %46
  %48 = add nsw i32 %47, %.1.i20.us
  %indvars.iv.next60 = add nuw nsw i64 %indvars.iv59, 1
  %exitcond63.not = icmp eq i64 %indvars.iv.next60, %wide.trip.count57
  br i1 %exitcond63.not, label %._crit_edge22.us, label %39, !llvm.loop !153

49:                                               ; preds = %.preheader16.us26, %49
  %indvars.iv54 = phi i64 [ 0, %.preheader16.us26 ], [ %indvars.iv.next55, %49 ]
  %.042.i18.us32 = phi i32 [ -1073741824, %.preheader16.us26 ], [ %58, %49 ]
  %50 = getelementptr inbounds nuw ptr, ptr %2, i64 %indvars.iv54
  %51 = load ptr, ptr %50, align 8, !tbaa !48
  %52 = getelementptr inbounds nuw i32, ptr %51, i64 %indvars.iv64
  %53 = load i32, ptr %52, align 4, !tbaa !49
  %54 = getelementptr inbounds nuw i16, ptr %1, i64 %indvars.iv54
  %55 = load i16, ptr %54, align 2, !tbaa !39
  %56 = sext i16 %55 to i32
  %57 = mul nsw i32 %53, %56
  %58 = add nsw i32 %57, %.042.i18.us32
  %indvars.iv.next55 = add nuw nsw i64 %indvars.iv54, 1
  %exitcond58.not = icmp eq i64 %indvars.iv.next55, %wide.trip.count57
  br i1 %exitcond58.not, label %.lr.ph21.us, label %49, !llvm.loop !151

.lr.ph21.us:                                      ; preds = %49
  %59 = ashr i32 %58, 15
  %60 = add nsw i32 %59, 32776
  %.not.i49.i.us29 = icmp ult i32 %60, 65536
  %isnotneg.i50.i.us30 = icmp sgt i32 %59, -32777
  %61 = sext i1 %isnotneg.i50.i.us30 to i16
  %62 = trunc nuw i32 %60 to i16
  %.0.i51.i.us31 = select i1 %.not.i49.i.us29, i16 %62, i16 %61
  br label %39

.preheader16:                                     ; preds = %.preheader16.lr.ph.split, %.preheader16
  %indvars.iv = phi i64 [ %indvars.iv.next, %.preheader16 ], [ 0, %.preheader16.lr.ph.split ]
  %.idx = shl nuw nsw i64 %indvars.iv, 2
  %63 = getelementptr inbounds nuw i8, ptr %9, i64 %.idx
  store i16 8, ptr %63, align 1, !tbaa !41
  %64 = getelementptr inbounds nuw i8, ptr %63, i64 2
  store i16 0, ptr %64, align 1, !tbaa !41
  %indvars.iv.next = add nuw nsw i64 %indvars.iv, 1
  %exitcond.not = icmp eq i64 %indvars.iv.next, %wide.trip.count82
  br i1 %exitcond.not, label %yuv2ya16_X_c_template.exit, label %.preheader16, !llvm.loop !152

yuv2ya16_X_c_template.exit:                       ; preds = %.preheader16, %._crit_edge22.us, %.preheader16.us, %._crit_edge.us.us, %12
  ret void
}